target datalayout = "e-m:e-p270:32:32-p271:32:32-p272:64:64-i64:64-i128:128-f80:128-n8:16:32:64-S128"
target triple = "x86_64-pc-linux-gnu"

@.str.39 = private unnamed_addr constant [4 x i8] c"%hx\00", align 1

; Function Attrs: nounwind uwtable
define internal i32 @get_packet_length(ptr noundef %0, i32 noundef %1, ptr noundef %2) #0 {
  %4 = alloca ptr, align 8
  %5 = alloca i32, align 4
  %6 = alloca ptr, align 8
  %7 = alloca ptr, align 8
  store ptr %0, ptr %4, align 8
  store i32 %1, ptr %5, align 4
  store ptr %2, ptr %6, align 8
  %8 = call ptr @wmem_packet_scope()
  %9 = load ptr, ptr %4, align 8
  %10 = load i32, ptr %5, align 4
  %11 = call ptr @tvb_get_string_enc(ptr noundef %8, ptr noundef %9, i32 noundef %10, i32 noundef 4, i32 noundef 0)
  store ptr %11, ptr %7, align 8
  %12 = load ptr, ptr %7, align 8
  %13 = load ptr, ptr %6, align 8
  %14 = call i32 (ptr, ptr, ...) @__isoc99_sscanf(ptr noundef %12, ptr noundef @.str.39, ptr noundef %13) #3
  %15 = icmp eq i32 %14, 1
  %16 = zext i1 %15 to i32
  ret i32 %16
}

; Function Attrs: nounwind uwtable
define internal i32 @get_git_pdu_len(ptr noundef %0, ptr noundef %1, i32 noundef %2, ptr noundef %3) #0 {
  %5 = alloca i32, align 4
  %6 = alloca ptr, align 8
  %7 = alloca ptr, align 8
  %8 = alloca i32, align 4
  %9 = alloca ptr, align 8
  %10 = alloca i16, align 2
  store ptr %0, ptr %6, align 8
  store ptr %1, ptr %7, align 8
  store i32 %2, ptr %8, align 4
  store ptr %3, ptr %9, align 8
  %11 = load ptr, ptr %7, align 8
  %12 = load i32, ptr %8, align 4
  %13 = call i32 @get_packet_length(ptr noundef %11, i32 noundef %12, ptr noundef %10)
  %14 = icmp ne i32 %13, 0
  br i1 %14, label %16, label %15

15:                                               ; preds = %4
  store i32 0, ptr %5, align 4
  br label %26

16:                                               ; preds = %4
  %17 = load i16, ptr %10, align 2
  %18 = zext i16 %17 to i32
  %19 = icmp slt i32 %18, 4
  br i1 %19, label %20, label %21

20:                                               ; preds = %16
  br label %24

21:                                               ; preds = %16
  %22 = load i16, ptr %10, align 2
  %23 = zext i16 %22 to i32
  br label %24

24:                                               ; preds = %21, %20
  %25 = phi i32 [ 4, %20 ], [ %23, %21 ]
  store i32 %25, ptr %5, align 4
  br label %26

26:                                               ; preds = %24, %15
  %27 = load i32, ptr %5, align 4
  ret i32 %27
}