; Function Attrs: nounwind uwtable
define internal range(i32 0, 65536) i32 @get_git_pdu_len(ptr readnone captures(none) %0, ptr noundef %1, i32 noundef %2, ptr readnone captures(none) %3) #0 {
  %5 = alloca i16, align 2
  %6 = tail call ptr @wmem_packet_scope() #4
  %7 = tail call ptr @tvb_get_string_enc(ptr noundef %6, ptr noundef %1, i32 noundef %2, i32 noundef 4, i32 noundef 0) #4
  %8 = call i32 (ptr, ptr, ...) @__isoc99_sscanf(ptr noundef %7, ptr noundef nonnull @.str.39, ptr noundef nonnull %5) #4
  %.not = icmp eq i32 %8, 1
  br i1 %.not, label %9, label %13

9:                                                ; preds = %4
  %10 = load i16, ptr %5, align 2
  %11 = call i16 @llvm.umax.i16(i16 %10, i16 4)
  %12 = zext i16 %11 to i32
  br label %13

13:                                               ; preds = %4, %9
  %.0 = phi i32 [ %12, %9 ], [ 0, %4 ]
  ret i32 %.0
}